; Function Attrs: nounwind uwtable
define internal noundef zeroext i1 @sqlfunction_receive(ptr noundef %0, ptr noundef readonly captures(none) %1) #0 {
  %3 = getelementptr inbounds nuw i8, ptr %1, i64 56
  %4 = load ptr, ptr %3, align 8
  %5 = tail call ptr @ExecFilterJunk(ptr noundef %4, ptr noundef %0) #11
  %6 = getelementptr inbounds nuw i8, ptr %1, i64 40
  %7 = load ptr, ptr %6, align 8
  tail call void @tuplestore_puttupleslot(ptr noundef %7, ptr noundef %5) #11
  ret i1 true
}